target datalayout = "e-m:e-p270:32:32-p271:32:32-p272:64:64-i64:64-i128:128-f80:128-n8:16:32:64-S128"
target triple = "x86_64-unknown-linux-gnu"

%"class.node::crypto::ByteSource" = type { ptr, ptr, i64 }

@.str.16 = private unnamed_addr constant [32 x i8] c"../../src/crypto/crypto_util.cc\00", align 1

; Function Attrs: mustprogress nounwind uwtable
define dso_local void @_ZN4node6crypto10ByteSourceD2Ev(ptr noundef nonnull align 8 dereferenceable(24) %this) unnamed_addr #4 align 2 {
entry:
  %this.addr = alloca ptr, align 8
  store ptr %this, ptr %this.addr, align 8
  %this1 = load ptr, ptr %this.addr, align 8
  %allocated_data_ = getelementptr inbounds %"class.node::crypto::ByteSource", ptr %this1, i32 0, i32 1
  %0 = load ptr, ptr %allocated_data_, align 8
  %size_ = getelementptr inbounds %"class.node::crypto::ByteSource", ptr %this1, i32 0, i32 2
  %1 = load i64, ptr %size_, align 8
  call void @CRYPTO_clear_free(ptr noundef %0, i64 noundef %1, ptr noundef @.str.16, i32 noundef 337)
  ret void
}