; Function Attrs: mustprogress nounwind uwtable
define dso_local void @_ZN4node6crypto10ByteSourceD2Ev(ptr nocapture noundef nonnull readonly align 8 dereferenceable(24) %this) unnamed_addr #4 align 2 {
entry:
  %allocated_data_ = getelementptr inbounds i8, ptr %this, i64 8
  %0 = load ptr, ptr %allocated_data_, align 8
  %size_ = getelementptr inbounds i8, ptr %this, i64 16
  %1 = load i64, ptr %size_, align 8
  tail call void @CRYPTO_clear_free(ptr noundef %0, i64 noundef %1, ptr noundef nonnull @.str.16, i32 noundef 337) #25
  ret void
}